; Function Attrs: mustprogress nofree norecurse nosync nounwind willreturn memory(argmem: read) uwtable
define noundef zeroext i1 @_ZN32pxrInternal_v0_24__pxrReserved__eqERKNS_21HgiRasterizationStateES2_(ptr nocapture noundef nonnull readonly align 8 dereferenceable(40) %0, ptr nocapture noundef nonnull readonly align 8 dereferenceable(40) %1) local_unnamed_addr #1 {
  %3 = load i32, ptr %0, align 8
  %4 = load i32, ptr %1, align 8
  %5 = icmp eq i32 %3, %4
  br i1 %5, label %6, label %66

6:                                                ; preds = %2
  %7 = getelementptr inbounds nuw i8, ptr %0, i64 4
  %8 = load float, ptr %7, align 4
  %9 = getelementptr inbounds nuw i8, ptr %1, i64 4
  %10 = load float, ptr %9, align 4
  %11 = fcmp oeq float %8, %10
  br i1 %11, label %12, label %66

12:                                               ; preds = %6
  %13 = getelementptr inbounds nuw i8, ptr %0, i64 8
  %14 = load i32, ptr %13, align 8
  %15 = getelementptr inbounds nuw i8, ptr %1, i64 8
  %16 = load i32, ptr %15, align 8
  %17 = icmp eq i32 %14, %16
  br i1 %17, label %18, label %66

18:                                               ; preds = %12
  %19 = getelementptr inbounds nuw i8, ptr %0, i64 12
  %20 = load i32, ptr %19, align 4
  %21 = getelementptr inbounds nuw i8, ptr %1, i64 12
  %22 = load i32, ptr %21, align 4
  %23 = icmp eq i32 %20, %22
  br i1 %23, label %24, label %66

24:                                               ; preds = %18
  %25 = getelementptr inbounds nuw i8, ptr %0, i64 16
  %26 = load i8, ptr %25, align 8
  %27 = getelementptr inbounds nuw i8, ptr %1, i64 16
  %28 = load i8, ptr %27, align 8
  %29 = xor i8 %28, %26
  %30 = and i8 %29, 1
  %31 = icmp eq i8 %30, 0
  br i1 %31, label %32, label %66

32:                                               ; preds = %24
  %33 = getelementptr inbounds nuw i8, ptr %0, i64 17
  %34 = load i8, ptr %33, align 1
  %35 = getelementptr inbounds nuw i8, ptr %1, i64 17
  %36 = load i8, ptr %35, align 1
  %37 = xor i8 %36, %34
  %38 = and i8 %37, 1
  %39 = icmp eq i8 %38, 0
  br i1 %39, label %40, label %66

40:                                               ; preds = %32
  %41 = getelementptr inbounds nuw i8, ptr %0, i64 20
  %42 = getelementptr inbounds nuw i8, ptr %1, i64 20
  %43 = load float, ptr %41, align 4
  %44 = load float, ptr %42, align 4
  %45 = fcmp oeq float %43, %44
  %46 = getelementptr inbounds i8, ptr %0, i64 24
  %47 = load float, ptr %46, align 8
  %48 = getelementptr inbounds i8, ptr %1, i64 24
  %49 = load float, ptr %48, align 8
  %50 = fcmp oeq float %47, %49
  %51 = select i1 %45, i1 %50, i1 false
  br i1 %51, label %52, label %66

52:                                               ; preds = %40
  %53 = getelementptr inbounds nuw i8, ptr %0, i64 28
  %54 = load i8, ptr %53, align 4
  %55 = getelementptr inbounds nuw i8, ptr %1, i64 28
  %56 = load i8, ptr %55, align 4
  %57 = xor i8 %56, %54
  %58 = and i8 %57, 1
  %59 = icmp eq i8 %58, 0
  br i1 %59, label %60, label %66

60:                                               ; preds = %52
  %61 = getelementptr inbounds nuw i8, ptr %0, i64 32
  %62 = load i64, ptr %61, align 8
  %63 = getelementptr inbounds nuw i8, ptr %1, i64 32
  %64 = load i64, ptr %63, align 8
  %65 = icmp eq i64 %62, %64
  br label %66

66:                                               ; preds = %60, %52, %40, %32, %24, %18, %12, %6, %2
  %67 = phi i1 [ false, %52 ], [ false, %40 ], [ false, %32 ], [ false, %24 ], [ false, %18 ], [ false, %12 ], [ false, %6 ], [ false, %2 ], [ %65, %60 ]
  ret i1 %67
}